target datalayout = "e-m:e-p270:32:32-p271:32:32-p272:64:64-i64:64-i128:128-f80:128-n8:16:32:64-S128"
target triple = "x86_64-pc-linux-gnu"

%struct.mbedtls_psa_aead_operation_t = type { i32, i16, i8, i8, %union.anon }
%union.anon = type { %struct.mbedtls_gcm_context }
%struct.mbedtls_gcm_context = type { %struct.mbedtls_cipher_context_t, [16 x [2 x i64]], i64, i64, [16 x i8], [16 x i8], [16 x i8], i8, i8 }
%struct.mbedtls_cipher_context_t = type { ptr, i32, i32, ptr, ptr, [16 x i8], i64, [16 x i8], i64, ptr, ptr }

; Function Attrs: nounwind uwtable
define hidden i32 @mbedtls_psa_aead_abort(ptr noundef %0) #0 {
  %2 = alloca ptr, align 8
  store ptr %0, ptr %2, align 8, !tbaa !20
  %3 = load ptr, ptr %2, align 8, !tbaa !20
  %4 = getelementptr inbounds nuw %struct.mbedtls_psa_aead_operation_t, ptr %3, i32 0, i32 0
  %5 = load i32, ptr %4, align 8, !tbaa !19
  switch i32 %5, label %15 [
    i32 89129216, label %6
    i32 89129472, label %9
    i32 84935936, label %12
  ]

6:                                                ; preds = %1
  %7 = load ptr, ptr %2, align 8, !tbaa !20
  %8 = getelementptr inbounds nuw %struct.mbedtls_psa_aead_operation_t, ptr %7, i32 0, i32 4
  call void @mbedtls_ccm_free(ptr noundef %8)
  br label %15

9:                                                ; preds = %1
  %10 = load ptr, ptr %2, align 8, !tbaa !20
  %11 = getelementptr inbounds nuw %struct.mbedtls_psa_aead_operation_t, ptr %10, i32 0, i32 4
  call void @mbedtls_gcm_free(ptr noundef %11)
  br label %15

12:                                               ; preds = %1
  %13 = load ptr, ptr %2, align 8, !tbaa !20
  %14 = getelementptr inbounds nuw %struct.mbedtls_psa_aead_operation_t, ptr %13, i32 0, i32 4
  call void @mbedtls_chachapoly_free(ptr noundef %14)
  br label %15

15:                                               ; preds = %1, %12, %9, %6
  %16 = load ptr, ptr %2, align 8, !tbaa !20
  %17 = getelementptr inbounds nuw %struct.mbedtls_psa_aead_operation_t, ptr %16, i32 0, i32 2
  %18 = load i8, ptr %17, align 2
  %19 = and i8 %18, -2
  %20 = or i8 %19, 0
  store i8 %20, ptr %17, align 2
  ret i32 0
}