; Function Attrs: nounwind uwtable
define hidden noundef i32 @mbedtls_psa_aead_abort(ptr noundef %0) local_unnamed_addr #0 {
  %2 = load i32, ptr %0, align 8, !tbaa !9
  switch i32 %2, label %9 [
    i32 89129216, label %3
    i32 89129472, label %5
    i32 84935936, label %7
  ]

3:                                                ; preds = %1
  %4 = getelementptr inbounds nuw i8, ptr %0, i64 8
  tail call void @mbedtls_ccm_free(ptr noundef nonnull %4) #4
  br label %9

5:                                                ; preds = %1
  %6 = getelementptr inbounds nuw i8, ptr %0, i64 8
  tail call void @mbedtls_gcm_free(ptr noundef nonnull %6) #4
  br label %9

7:                                                ; preds = %1
  %8 = getelementptr inbounds nuw i8, ptr %0, i64 8
  tail call void @mbedtls_chachapoly_free(ptr noundef nonnull %8) #4
  br label %9

9:                                                ; preds = %7, %5, %3, %1
  %10 = getelementptr inbounds nuw i8, ptr %0, i64 6
  %11 = load i8, ptr %10, align 2
  %12 = and i8 %11, -2
  store i8 %12, ptr %10, align 2
  ret i32 0
}